target datalayout = "e-m:e-p270:32:32-p271:32:32-p272:64:64-i64:64-i128:128-f80:128-n8:16:32:64-S128"
target triple = "x86_64-pc-linux-gnu"

@hf_afs_fs_volsync_spare1 = internal global i32 0, align 4
@hf_afs_fs_volsync_spare2 = internal global i32 0, align 4
@hf_afs_fs_volsync_spare3 = internal global i32 0, align 4
@hf_afs_fs_volsync_spare4 = internal global i32 0, align 4
@hf_afs_fs_volsync_spare5 = internal global i32 0, align 4
@hf_afs_fs_volsync_spare6 = internal global i32 0, align 4
@ett_afs_status = internal global i32 0, align 4
@.str.938 = private unnamed_addr constant [8 x i8] c"VolSync\00", align 1

; Function Attrs: null_pointer_is_valid sspstrong uwtable
define internal void @OUT_TIMESECS(ptr noundef %0, i32 noundef %1) #0 {
  %3 = alloca ptr, align 8
  %4 = alloca i32, align 4
  store ptr %0, ptr %3, align 8
  store i32 %1, ptr %4, align 4
  %5 = load ptr, ptr %3, align 8
  %6 = call ptr @ptvcursor_tree(ptr noundef %5)
  %7 = load i32, ptr %4, align 4
  %8 = load ptr, ptr %3, align 8
  %9 = call ptr @ptvcursor_tvbuff(ptr noundef %8)
  %10 = load ptr, ptr %3, align 8
  %11 = call i32 @ptvcursor_current_offset(ptr noundef %10)
  %12 = call ptr @proto_tree_add_item(ptr noundef %6, i32 noundef %7, ptr noundef %9, i32 noundef %11, i32 noundef 4, i32 noundef 18)
  %13 = load ptr, ptr %3, align 8
  call void @ptvcursor_advance(ptr noundef %13, i32 noundef 4)
  ret void
}

; Function Attrs: null_pointer_is_valid sspstrong uwtable
define internal void @OUT_FS_AFSVolSync(ptr noundef %0) #0 {
  %2 = alloca ptr, align 8
  store ptr %0, ptr %2, align 8
  %3 = load ptr, ptr %2, align 8
  %4 = load i32, ptr @ett_afs_status, align 4
  %5 = call ptr (ptr, i32, i32, ptr, ...) @ptvcursor_add_text_with_subtree(ptr noundef %3, i32 noundef -1, i32 noundef %4, ptr noundef @.str.938)
  %6 = load ptr, ptr %2, align 8
  %7 = load i32, ptr @hf_afs_fs_volsync_spare1, align 4
  call void @OUT_TIMESECS(ptr noundef %6, i32 noundef %7)
  %8 = load ptr, ptr %2, align 8
  %9 = load i32, ptr @hf_afs_fs_volsync_spare2, align 4
  %10 = call ptr @ptvcursor_add(ptr noundef %8, i32 noundef %9, i32 noundef 4, i32 noundef 0)
  %11 = load ptr, ptr %2, align 8
  %12 = load i32, ptr @hf_afs_fs_volsync_spare3, align 4
  %13 = call ptr @ptvcursor_add(ptr noundef %11, i32 noundef %12, i32 noundef 4, i32 noundef 0)
  %14 = load ptr, ptr %2, align 8
  %15 = load i32, ptr @hf_afs_fs_volsync_spare4, align 4
  %16 = call ptr @ptvcursor_add(ptr noundef %14, i32 noundef %15, i32 noundef 4, i32 noundef 0)
  %17 = load ptr, ptr %2, align 8
  %18 = load i32, ptr @hf_afs_fs_volsync_spare5, align 4
  %19 = call ptr @ptvcursor_add(ptr noundef %17, i32 noundef %18, i32 noundef 4, i32 noundef 0)
  %20 = load ptr, ptr %2, align 8
  %21 = load i32, ptr @hf_afs_fs_volsync_spare6, align 4
  %22 = call ptr @ptvcursor_add(ptr noundef %20, i32 noundef %21, i32 noundef 4, i32 noundef 0)
  %23 = load ptr, ptr %2, align 8
  call void @ptvcursor_pop_subtree(ptr noundef %23)
  ret void
}