; Function Attrs: null_pointer_is_valid sspstrong uwtable
define internal fastcc void @OUT_FS_AFSVolSync(ptr noundef %0) unnamed_addr #0 {
  %2 = load i32, ptr @ett_afs_status, align 4
  %3 = tail call ptr (ptr, i32, i32, ptr, ...) @ptvcursor_add_text_with_subtree(ptr noundef %0, i32 noundef -1, i32 noundef %2, ptr noundef nonnull @.str.938)
  %4 = load i32, ptr @hf_afs_fs_volsync_spare1, align 4
  %5 = tail call ptr @ptvcursor_tree(ptr noundef %0)
  %6 = tail call ptr @ptvcursor_tvbuff(ptr noundef %0)
  %7 = tail call i32 @ptvcursor_current_offset(ptr noundef %0)
  %8 = tail call ptr @proto_tree_add_item(ptr noundef %5, i32 noundef %4, ptr noundef %6, i32 noundef %7, i32 noundef 4, i32 noundef 18)
  tail call void @ptvcursor_advance(ptr noundef %0, i32 noundef 4)
  %9 = load i32, ptr @hf_afs_fs_volsync_spare2, align 4
  %10 = tail call ptr @ptvcursor_add(ptr noundef %0, i32 noundef %9, i32 noundef 4, i32 noundef 0)
  %11 = load i32, ptr @hf_afs_fs_volsync_spare3, align 4
  %12 = tail call ptr @ptvcursor_add(ptr noundef %0, i32 noundef %11, i32 noundef 4, i32 noundef 0)
  %13 = load i32, ptr @hf_afs_fs_volsync_spare4, align 4
  %14 = tail call ptr @ptvcursor_add(ptr noundef %0, i32 noundef %13, i32 noundef 4, i32 noundef 0)
  %15 = load i32, ptr @hf_afs_fs_volsync_spare5, align 4
  %16 = tail call ptr @ptvcursor_add(ptr noundef %0, i32 noundef %15, i32 noundef 4, i32 noundef 0)
  %17 = load i32, ptr @hf_afs_fs_volsync_spare6, align 4
  %18 = tail call ptr @ptvcursor_add(ptr noundef %0, i32 noundef %17, i32 noundef 4, i32 noundef 0)
  tail call void @ptvcursor_pop_subtree(ptr noundef %0)
  ret void
}